; Function Attrs: nounwind uwtable
define i64 @h5tools_get_big_endian_type(i64 noundef %0) local_unnamed_addr #0 {
  %2 = tail call i32 @H5Tget_class(i64 noundef %0) #2
  %3 = tail call i64 @H5Tget_size(i64 noundef %0) #2
  %4 = tail call i32 @H5Tget_sign(i64 noundef %0) #2
  switch i32 %2, label %26 [
    i32 0, label %5
    i32 1, label %19
    i32 4, label %22
  ]

5:                                                ; preds = %1
  %6 = icmp eq i64 %3, 1
  %7 = icmp eq i32 %4, 1
  %or.cond = select i1 %6, i1 %7, i1 false
  br i1 %or.cond, label %.sink.split, label %8

8:                                                ; preds = %5
  %9 = icmp eq i64 %3, 2
  %or.cond3 = select i1 %9, i1 %7, i1 false
  br i1 %or.cond3, label %.sink.split, label %10

10:                                               ; preds = %8
  %11 = icmp eq i64 %3, 4
  %or.cond5 = select i1 %11, i1 %7, i1 false
  br i1 %or.cond5, label %.sink.split, label %12

12:                                               ; preds = %10
  %13 = icmp eq i64 %3, 8
  %or.cond7 = select i1 %13, i1 %7, i1 false
  br i1 %or.cond7, label %.sink.split, label %14

14:                                               ; preds = %12
  %15 = icmp eq i32 %4, 0
  %or.cond9 = select i1 %6, i1 %15, i1 false
  br i1 %or.cond9, label %.sink.split, label %16

16:                                               ; preds = %14
  %or.cond11 = select i1 %9, i1 %15, i1 false
  br i1 %or.cond11, label %.sink.split, label %17

17:                                               ; preds = %16
  %or.cond13 = select i1 %11, i1 %15, i1 false
  br i1 %or.cond13, label %.sink.split, label %18

18:                                               ; preds = %17
  %or.cond15 = select i1 %13, i1 %15, i1 false
  br i1 %or.cond15, label %.sink.split, label %26

19:                                               ; preds = %1
  switch i64 %3, label %26 [
    i64 2, label %.sink.split
    i64 4, label %20
    i64 8, label %21
  ]

20:                                               ; preds = %19
  br label %.sink.split

21:                                               ; preds = %19
  br label %.sink.split

22:                                               ; preds = %1
  %switch.tableidx = add i64 %3, -1
  %23 = icmp ult i64 %switch.tableidx, 8
  br i1 %23, label %switch.hole_check, label %26

switch.hole_check:                                ; preds = %22
  %switch.maskindex = trunc nuw i64 %switch.tableidx to i8
  %switch.shifted = lshr i8 -117, %switch.maskindex
  %switch.lobit = trunc i8 %switch.shifted to i1
  br i1 %switch.lobit, label %switch.lookup, label %26

switch.lookup:                                    ; preds = %switch.hole_check
  %switch.gep = getelementptr inbounds [8 x ptr], ptr @switch.table.h5tools_get_big_endian_type, i64 0, i64 %switch.tableidx
  %switch.load = load ptr, ptr %switch.gep, align 8
  br label %.sink.split

.sink.split:                                      ; preds = %switch.lookup, %19, %18, %17, %16, %14, %12, %10, %8, %5, %20, %21
  %H5T_STD_B8BE_g.sink = phi ptr [ @H5T_IEEE_F64BE_g, %21 ], [ @H5T_IEEE_F32BE_g, %20 ], [ @H5T_STD_I8BE_g, %5 ], [ @H5T_STD_I16BE_g, %8 ], [ @H5T_STD_I32BE_g, %10 ], [ @H5T_STD_I64BE_g, %12 ], [ @H5T_STD_U8BE_g, %14 ], [ @H5T_STD_U16BE_g, %16 ], [ @H5T_STD_U32BE_g, %17 ], [ @H5T_STD_U64BE_g, %18 ], [ @H5T_IEEE_F16BE_g, %19 ], [ %switch.load, %switch.lookup ]
  %24 = load i64, ptr %H5T_STD_B8BE_g.sink, align 8
  %25 = tail call i64 @H5Tcopy(i64 noundef %24) #2
  br label %26

26:                                               ; preds = %switch.hole_check, %22, %.sink.split, %19, %1, %18
  %.0 = phi i64 [ -1, %1 ], [ -1, %18 ], [ -1, %19 ], [ -1, %22 ], [ %25, %.sink.split ], [ -1, %switch.hole_check ]
  ret i64 %.0
}